target datalayout = "e-m:e-p270:32:32-p271:32:32-p272:64:64-i64:64-i128:128-f80:128-n8:16:32:64-S128"
target triple = "x86_64-pc-linux-gnu"

%struct.UDataSwapper = type { i8, i8, i8, i8, ptr, ptr, ptr, ptr, ptr, ptr, ptr, ptr, ptr, ptr, ptr }

; Function Attrs: inlinehint mustprogress nounwind uwtable
define internal noundef signext i8 @_ZL9U_FAILURE10UErrorCode(i32 noundef %0) #2 {
  %2 = alloca i32, align 4
  store i32 %0, ptr %2, align 4, !tbaa !16
  %3 = load i32, ptr %2, align 4, !tbaa !16
  %4 = icmp sgt i32 %3, 0
  %5 = zext i1 %4 to i8
  ret i8 %5
}

; Function Attrs: mustprogress uwtable
define ptr @udata_openSwapper_77(i8 noundef signext %0, i8 noundef zeroext %1, i8 noundef signext %2, i8 noundef zeroext %3, ptr noundef %4) #0 {
  %6 = alloca ptr, align 8
  %7 = alloca i8, align 1
  %8 = alloca i8, align 1
  %9 = alloca i8, align 1
  %10 = alloca i8, align 1
  %11 = alloca ptr, align 8
  %12 = alloca ptr, align 8
  %13 = alloca i32, align 4
  store i8 %0, ptr %7, align 1, !tbaa !20
  store i8 %1, ptr %8, align 1, !tbaa !20
  store i8 %2, ptr %9, align 1, !tbaa !20
  store i8 %3, ptr %10, align 1, !tbaa !20
  store ptr %4, ptr %11, align 8, !tbaa !15
  call void @llvm.lifetime.start.p0(i64 8, ptr %12) #9
  %14 = load ptr, ptr %11, align 8, !tbaa !15
  %15 = icmp eq ptr %14, null
  br i1 %15, label %21, label %16

16:                                               ; preds = %5
  %17 = load ptr, ptr %11, align 8, !tbaa !15
  %18 = load i32, ptr %17, align 4, !tbaa !16
  %19 = call noundef signext i8 @_ZL9U_FAILURE10UErrorCode(i32 noundef %18)
  %20 = icmp ne i8 %19, 0
  br i1 %20, label %21, label %22

21:                                               ; preds = %16, %5
  store ptr null, ptr %6, align 8
  store i32 1, ptr %13, align 4
  br label %142

22:                                               ; preds = %16
  %23 = load i8, ptr %8, align 1, !tbaa !20
  %24 = zext i8 %23 to i32
  %25 = icmp sgt i32 %24, 1
  br i1 %25, label %30, label %26

26:                                               ; preds = %22
  %27 = load i8, ptr %10, align 1, !tbaa !20
  %28 = zext i8 %27 to i32
  %29 = icmp sgt i32 %28, 1
  br i1 %29, label %30, label %32

30:                                               ; preds = %26, %22
  %31 = load ptr, ptr %11, align 8, !tbaa !15
  store i32 1, ptr %31, align 4, !tbaa !16
  store ptr null, ptr %6, align 8
  store i32 1, ptr %13, align 4
  br label %142

32:                                               ; preds = %26
  %33 = call noalias ptr @uprv_malloc_77(i64 noundef 96) #10
  store ptr %33, ptr %12, align 8, !tbaa !3
  %34 = load ptr, ptr %12, align 8, !tbaa !3
  %35 = icmp eq ptr %34, null
  br i1 %35, label %36, label %38

36:                                               ; preds = %32
  %37 = load ptr, ptr %11, align 8, !tbaa !15
  store i32 7, ptr %37, align 4, !tbaa !16
  store ptr null, ptr %6, align 8
  store i32 1, ptr %13, align 4
  br label %142

38:                                               ; preds = %32
  %39 = load ptr, ptr %12, align 8, !tbaa !3
  call void @llvm.memset.p0.i64(ptr align 8 %39, i8 0, i64 96, i1 false)
  %40 = load i8, ptr %7, align 1, !tbaa !20
  %41 = load ptr, ptr %12, align 8, !tbaa !3
  %42 = getelementptr inbounds nuw %struct.UDataSwapper, ptr %41, i32 0, i32 0
  store i8 %40, ptr %42, align 8, !tbaa !40
  %43 = load i8, ptr %8, align 1, !tbaa !20
  %44 = load ptr, ptr %12, align 8, !tbaa !3
  %45 = getelementptr inbounds nuw %struct.UDataSwapper, ptr %44, i32 0, i32 1
  store i8 %43, ptr %45, align 1, !tbaa !41
  %46 = load i8, ptr %9, align 1, !tbaa !20
  %47 = load ptr, ptr %12, align 8, !tbaa !3
  %48 = getelementptr inbounds nuw %struct.UDataSwapper, ptr %47, i32 0, i32 2
  store i8 %46, ptr %48, align 2, !tbaa !34
  %49 = load i8, ptr %10, align 1, !tbaa !20
  %50 = load ptr, ptr %12, align 8, !tbaa !3
  %51 = getelementptr inbounds nuw %struct.UDataSwapper, ptr %50, i32 0, i32 3
  store i8 %49, ptr %51, align 1, !tbaa !36
  %52 = load i8, ptr %7, align 1, !tbaa !20
  %53 = sext i8 %52 to i32
  %54 = icmp eq i32 %53, 0
  br i1 %54, label %55, label %56

55:                                               ; preds = %38
  br label %57

56:                                               ; preds = %38
  br label %57

57:                                               ; preds = %56, %55
  %58 = phi ptr [ @_ZL21uprv_readDirectUInt16t, %55 ], [ @_ZL19uprv_readSwapUInt16t, %56 ]
  %59 = load ptr, ptr %12, align 8, !tbaa !3
  %60 = getelementptr inbounds nuw %struct.UDataSwapper, ptr %59, i32 0, i32 4
  store ptr %58, ptr %60, align 8, !tbaa !10
  %61 = load i8, ptr %7, align 1, !tbaa !20
  %62 = sext i8 %61 to i32
  %63 = icmp eq i32 %62, 0
  br i1 %63, label %64, label %65

64:                                               ; preds = %57
  br label %66

65:                                               ; preds = %57
  br label %66

66:                                               ; preds = %65, %64
  %67 = phi ptr [ @_ZL21uprv_readDirectUInt32j, %64 ], [ @_ZL19uprv_readSwapUInt32j, %65 ]
  %68 = load ptr, ptr %12, align 8, !tbaa !3
  %69 = getelementptr inbounds nuw %struct.UDataSwapper, ptr %68, i32 0, i32 5
  store ptr %67, ptr %69, align 8, !tbaa !14
  %70 = load i8, ptr %9, align 1, !tbaa !20
  %71 = sext i8 %70 to i32
  %72 = icmp eq i32 %71, 0
  br i1 %72, label %73, label %74

73:                                               ; preds = %66
  br label %75

74:                                               ; preds = %66
  br label %75

75:                                               ; preds = %74, %73
  %76 = phi ptr [ @_ZL22uprv_writeDirectUInt16Ptt, %73 ], [ @_ZL20uprv_writeSwapUInt16Ptt, %74 ]
  %77 = load ptr, ptr %12, align 8, !tbaa !3
  %78 = getelementptr inbounds nuw %struct.UDataSwapper, ptr %77, i32 0, i32 7
  store ptr %76, ptr %78, align 8, !tbaa !42
  %79 = load i8, ptr %9, align 1, !tbaa !20
  %80 = sext i8 %79 to i32
  %81 = icmp eq i32 %80, 0
  br i1 %81, label %82, label %83

82:                                               ; preds = %75
  br label %84

83:                                               ; preds = %75
  br label %84

84:                                               ; preds = %83, %82
  %85 = phi ptr [ @_ZL22uprv_writeDirectUInt32Pjj, %82 ], [ @_ZL20uprv_writeSwapUInt32Pjj, %83 ]
  %86 = load ptr, ptr %12, align 8, !tbaa !3
  %87 = getelementptr inbounds nuw %struct.UDataSwapper, ptr %86, i32 0, i32 8
  store ptr %85, ptr %87, align 8, !tbaa !43
  %88 = load i8, ptr %10, align 1, !tbaa !20
  %89 = zext i8 %88 to i32
  %90 = icmp eq i32 %89, 0
  br i1 %90, label %91, label %92

91:                                               ; preds = %84
  br label %93

92:                                               ; preds = %84
  br label %93

93:                                               ; preds = %92, %91
  %94 = phi ptr [ @uprv_compareInvAscii_77, %91 ], [ @uprv_compareInvEbcdic_77, %92 ]
  %95 = load ptr, ptr %12, align 8, !tbaa !3
  %96 = getelementptr inbounds nuw %struct.UDataSwapper, ptr %95, i32 0, i32 6
  store ptr %94, ptr %96, align 8, !tbaa !44
  %97 = load i8, ptr %7, align 1, !tbaa !20
  %98 = sext i8 %97 to i32
  %99 = load i8, ptr %9, align 1, !tbaa !20
  %100 = sext i8 %99 to i32
  %101 = icmp eq i32 %98, %100
  br i1 %101, label %102, label %109

102:                                              ; preds = %93
  %103 = load ptr, ptr %12, align 8, !tbaa !3
  %104 = getelementptr inbounds nuw %struct.UDataSwapper, ptr %103, i32 0, i32 9
  store ptr @_ZL16uprv_copyArray16PK12UDataSwapperPKviPvP10UErrorCode, ptr %104, align 8, !tbaa !38
  %105 = load ptr, ptr %12, align 8, !tbaa !3
  %106 = getelementptr inbounds nuw %struct.UDataSwapper, ptr %105, i32 0, i32 10
  store ptr @_ZL16uprv_copyArray32PK12UDataSwapperPKviPvP10UErrorCode, ptr %106, align 8, !tbaa !45
  %107 = load ptr, ptr %12, align 8, !tbaa !3
  %108 = getelementptr inbounds nuw %struct.UDataSwapper, ptr %107, i32 0, i32 11
  store ptr @_ZL16uprv_copyArray64PK12UDataSwapperPKviPvP10UErrorCode, ptr %108, align 8, !tbaa !46
  br label %116

109:                                              ; preds = %93
  %110 = load ptr, ptr %12, align 8, !tbaa !3
  %111 = getelementptr inbounds nuw %struct.UDataSwapper, ptr %110, i32 0, i32 9
  store ptr @_ZL16uprv_swapArray16PK12UDataSwapperPKviPvP10UErrorCode, ptr %111, align 8, !tbaa !38
  %112 = load ptr, ptr %12, align 8, !tbaa !3
  %113 = getelementptr inbounds nuw %struct.UDataSwapper, ptr %112, i32 0, i32 10
  store ptr @_ZL16uprv_swapArray32PK12UDataSwapperPKviPvP10UErrorCode, ptr %113, align 8, !tbaa !45
  %114 = load ptr, ptr %12, align 8, !tbaa !3
  %115 = getelementptr inbounds nuw %struct.UDataSwapper, ptr %114, i32 0, i32 11
  store ptr @_ZL16uprv_swapArray64PK12UDataSwapperPKviPvP10UErrorCode, ptr %115, align 8, !tbaa !46
  br label %116

116:                                              ; preds = %109, %102
  %117 = load i8, ptr %8, align 1, !tbaa !20
  %118 = zext i8 %117 to i32
  %119 = icmp eq i32 %118, 0
  br i1 %119, label %120, label %130

120:                                              ; preds = %116
  %121 = load i8, ptr %10, align 1, !tbaa !20
  %122 = zext i8 %121 to i32
  %123 = icmp eq i32 %122, 0
  br i1 %123, label %124, label %125

124:                                              ; preds = %120
  br label %126

125:                                              ; preds = %120
  br label %126

126:                                              ; preds = %125, %124
  %127 = phi ptr [ @uprv_copyAscii_77, %124 ], [ @uprv_ebcdicFromAscii_77, %125 ]
  %128 = load ptr, ptr %12, align 8, !tbaa !3
  %129 = getelementptr inbounds nuw %struct.UDataSwapper, ptr %128, i32 0, i32 12
  store ptr %127, ptr %129, align 8, !tbaa !23
  br label %140

130:                                              ; preds = %116
  %131 = load i8, ptr %10, align 1, !tbaa !20
  %132 = zext i8 %131 to i32
  %133 = icmp eq i32 %132, 1
  br i1 %133, label %134, label %135

134:                                              ; preds = %130
  br label %136

135:                                              ; preds = %130
  br label %136

136:                                              ; preds = %135, %134
  %137 = phi ptr [ @uprv_copyEbcdic_77, %134 ], [ @uprv_asciiFromEbcdic_77, %135 ]
  %138 = load ptr, ptr %12, align 8, !tbaa !3
  %139 = getelementptr inbounds nuw %struct.UDataSwapper, ptr %138, i32 0, i32 12
  store ptr %137, ptr %139, align 8, !tbaa !23
  br label %140

140:                                              ; preds = %136, %126
  %141 = load ptr, ptr %12, align 8, !tbaa !3
  store ptr %141, ptr %6, align 8
  store i32 1, ptr %13, align 4
  br label %142

142:                                              ; preds = %140, %36, %30, %21
  call void @llvm.lifetime.end.p0(i64 8, ptr %12) #9
  %143 = load ptr, ptr %6, align 8
  ret ptr %143
}