; Function Attrs: mustprogress uwtable
define noalias noundef ptr @udata_openSwapper_77(i8 noundef signext %0, i8 noundef zeroext %1, i8 noundef signext %2, i8 noundef zeroext %3, ptr noundef %4) local_unnamed_addr #0 {
  %6 = icmp eq ptr %4, null
  br i1 %6, label %43, label %7

7:                                                ; preds = %5
  %8 = load i32, ptr %4, align 4, !tbaa !9
  %9 = icmp slt i32 %8, 1
  br i1 %9, label %10, label %43

10:                                               ; preds = %7
  %11 = or i8 %3, %1
  %or.cond.not = icmp ult i8 %11, 2
  br i1 %or.cond.not, label %13, label %12

12:                                               ; preds = %10
  store i32 1, ptr %4, align 4, !tbaa !9
  br label %43

13:                                               ; preds = %10
  %14 = tail call noalias dereferenceable_or_null(96) ptr @uprv_malloc_77(i64 noundef 96) #13
  %15 = icmp eq ptr %14, null
  br i1 %15, label %16, label %17

16:                                               ; preds = %13
  store i32 7, ptr %4, align 4, !tbaa !9
  br label %43

17:                                               ; preds = %13
  tail call void @llvm.memset.p0.i64(ptr noundef nonnull align 8 dereferenceable(96) %14, i8 0, i64 96, i1 false)
  store i8 %0, ptr %14, align 8, !tbaa !32
  %18 = getelementptr inbounds nuw i8, ptr %14, i64 1
  store i8 %1, ptr %18, align 1, !tbaa !33
  %19 = getelementptr inbounds nuw i8, ptr %14, i64 2
  store i8 %2, ptr %19, align 2, !tbaa !26
  %20 = getelementptr inbounds nuw i8, ptr %14, i64 3
  store i8 %3, ptr %20, align 1, !tbaa !28
  %21 = icmp eq i8 %0, 0
  %_ZL21uprv_readDirectUInt16t._ZL19uprv_readSwapUInt16t = select i1 %21, ptr @_ZL21uprv_readDirectUInt16t, ptr @_ZL19uprv_readSwapUInt16t
  %22 = getelementptr inbounds nuw i8, ptr %14, i64 8
  store ptr %_ZL21uprv_readDirectUInt16t._ZL19uprv_readSwapUInt16t, ptr %22, align 8, !tbaa !3
  %23 = select i1 %21, ptr @_ZL21uprv_readDirectUInt32j, ptr @_ZL19uprv_readSwapUInt32j
  %24 = getelementptr inbounds nuw i8, ptr %14, i64 16
  store ptr %23, ptr %24, align 8, !tbaa !8
  %25 = icmp eq i8 %2, 0
  %26 = select i1 %25, ptr @_ZL22uprv_writeDirectUInt16Ptt, ptr @_ZL20uprv_writeSwapUInt16Ptt
  %27 = getelementptr inbounds nuw i8, ptr %14, i64 32
  store ptr %26, ptr %27, align 8, !tbaa !34
  %28 = select i1 %25, ptr @_ZL22uprv_writeDirectUInt32Pjj, ptr @_ZL20uprv_writeSwapUInt32Pjj
  %29 = getelementptr inbounds nuw i8, ptr %14, i64 40
  store ptr %28, ptr %29, align 8, !tbaa !35
  %30 = icmp eq i8 %3, 0
  %31 = select i1 %30, ptr @uprv_compareInvAscii_77, ptr @uprv_compareInvEbcdic_77
  %32 = getelementptr inbounds nuw i8, ptr %14, i64 24
  store ptr %31, ptr %32, align 8, !tbaa !36
  %33 = icmp eq i8 %0, %2
  %_ZL16uprv_swapArray16PK12UDataSwapperPKviPvP10UErrorCode.sink = select i1 %33, ptr @_ZL16uprv_copyArray16PK12UDataSwapperPKviPvP10UErrorCode, ptr @_ZL16uprv_swapArray16PK12UDataSwapperPKviPvP10UErrorCode
  %_ZL16uprv_swapArray32PK12UDataSwapperPKviPvP10UErrorCode.sink = select i1 %33, ptr @_ZL16uprv_copyArray32PK12UDataSwapperPKviPvP10UErrorCode, ptr @_ZL16uprv_swapArray32PK12UDataSwapperPKviPvP10UErrorCode
  %_ZL16uprv_swapArray64PK12UDataSwapperPKviPvP10UErrorCode.sink = select i1 %33, ptr @_ZL16uprv_copyArray64PK12UDataSwapperPKviPvP10UErrorCode, ptr @_ZL16uprv_swapArray64PK12UDataSwapperPKviPvP10UErrorCode
  %34 = getelementptr inbounds nuw i8, ptr %14, i64 48
  store ptr %_ZL16uprv_swapArray16PK12UDataSwapperPKviPvP10UErrorCode.sink, ptr %34, align 8, !tbaa !30
  %35 = getelementptr inbounds nuw i8, ptr %14, i64 56
  store ptr %_ZL16uprv_swapArray32PK12UDataSwapperPKviPvP10UErrorCode.sink, ptr %35, align 8, !tbaa !37
  %36 = getelementptr inbounds nuw i8, ptr %14, i64 64
  store ptr %_ZL16uprv_swapArray64PK12UDataSwapperPKviPvP10UErrorCode.sink, ptr %36, align 8, !tbaa !38
  %37 = icmp eq i8 %1, 0
  br i1 %37, label %38, label %40

38:                                               ; preds = %17
  %uprv_copyAscii_77.uprv_ebcdicFromAscii_77 = select i1 %30, ptr @uprv_copyAscii_77, ptr @uprv_ebcdicFromAscii_77
  %39 = getelementptr inbounds nuw i8, ptr %14, i64 72
  store ptr %uprv_copyAscii_77.uprv_ebcdicFromAscii_77, ptr %39, align 8, !tbaa !14
  br label %43

40:                                               ; preds = %17
  %41 = icmp eq i8 %3, 1
  %uprv_copyEbcdic_77.uprv_asciiFromEbcdic_77 = select i1 %41, ptr @uprv_copyEbcdic_77, ptr @uprv_asciiFromEbcdic_77
  %42 = getelementptr inbounds nuw i8, ptr %14, i64 72
  store ptr %uprv_copyEbcdic_77.uprv_asciiFromEbcdic_77, ptr %42, align 8, !tbaa !14
  br label %43

43:                                               ; preds = %38, %40, %5, %7, %16, %12
  %.0 = phi ptr [ null, %12 ], [ null, %16 ], [ null, %7 ], [ null, %5 ], [ %14, %40 ], [ %14, %38 ]
  ret ptr %.0
}